; Function Attrs: mustprogress nounwind uwtable
define internal void @_ZN4absl18container_internal12_GLOBAL__N_126Test_without_transfer_TestD0Ev(ptr noundef nonnull align 8 dereferenceable(312) initializes((0, 8)) %0) unnamed_addr #12 align 2 {
  store ptr getelementptr inbounds nuw inrange(-16, 48) (i8, ptr @_ZTVN4absl18container_internal12_GLOBAL__N_14TestE, i64 16), ptr %0, align 8, !tbaa !4
  %2 = getelementptr inbounds nuw i8, ptr %0, i64 240
  tail call void @_ZN7testing8internal14FunctionMockerIFvPvPiS3_EED2Ev(ptr noundef nonnull align 8 dereferenceable(72) %2) #28
  %3 = getelementptr inbounds nuw i8, ptr %0, i64 168
  tail call void @_ZN7testing8internal14FunctionMockerIFRiPiEED2Ev(ptr noundef nonnull align 8 dereferenceable(72) %3) #28
  %4 = getelementptr inbounds nuw i8, ptr %0, i64 96
  tail call void @_ZN7testing8internal14FunctionMockerIFvPvPiEED2Ev(ptr noundef nonnull align 8 dereferenceable(72) %4) #28
  %5 = getelementptr inbounds nuw i8, ptr %0, i64 24
  tail call void @_ZN7testing8internal14FunctionMockerIFvPvPiiEED2Ev(ptr noundef nonnull align 8 dereferenceable(72) %5) #28
  tail call void @_ZN7testing4TestD2Ev(ptr noundef nonnull align 8 dereferenceable(312) %0) #28
  tail call void @_ZdlPvm(ptr noundef nonnull %0, i64 noundef 312) #30
  ret void
}